; Function Attrs: nounwind uwtable
define zeroext i1 @lv_obj_remove_event_dsc(ptr noundef readonly %0, ptr noundef %1) local_unnamed_addr #0 {
  %.not = icmp eq ptr %0, null
  br i1 %.not, label %.preheader, label %3

.preheader:                                       ; preds = %2, %.preheader
  br label %.preheader

3:                                                ; preds = %2
  %.not9 = icmp eq ptr %1, null
  br i1 %.not9, label %.preheader10, label %4

.preheader10:                                     ; preds = %3, %.preheader10
  br label %.preheader10

4:                                                ; preds = %3
  %5 = getelementptr inbounds nuw i8, ptr %0, i64 16
  %6 = load ptr, ptr %5, align 8, !tbaa !13
  %7 = icmp eq ptr %6, null
  br i1 %7, label %11, label %8

8:                                                ; preds = %4
  %9 = getelementptr inbounds nuw i8, ptr %6, i64 16
  %10 = tail call zeroext i1 @lv_event_remove_dsc(ptr noundef nonnull %9, ptr noundef nonnull %1) #4
  br label %11

11:                                               ; preds = %4, %8
  %.0 = phi i1 [ %10, %8 ], [ false, %4 ]
  ret i1 %.0
}